target datalayout = "e-m:e-p270:32:32-p271:32:32-p272:64:64-i64:64-i128:128-f80:128-n8:16:32:64-S128"
target triple = "x86_64-pc-linux-gnu"

%class.outputStream = type { ptr, i32, i8, i32, i64, %class.TimeStamp, ptr, i64 }
%class.TimeStamp = type { i64 }
%class.stringStream = type <{ %class.outputStream, ptr, i64, i64, i8, [48 x i8], [7 x i8] }>

; Function Attrs: mustprogress nounwind uwtable
define hidden noundef zeroext i1 @_ZN12outputStream15update_positionEPKcm(ptr noundef nonnull align 8 dereferenceable(56) %0, ptr noundef %1, i64 noundef %2) #1 align 2 {
  %4 = alloca ptr, align 8
  %5 = alloca ptr, align 8
  %6 = alloca i64, align 8
  %7 = alloca i8, align 1
  %8 = alloca i64, align 8
  %9 = alloca i8, align 1
  %10 = alloca i32, align 4
  store ptr %0, ptr %4, align 8
  store ptr %1, ptr %5, align 8
  store i64 %2, ptr %6, align 8
  %11 = load ptr, ptr %4, align 8
  store i8 0, ptr %7, align 1
  store i64 0, ptr %8, align 8
  br label %12

12:                                               ; preds = %58, %3
  %13 = load i64, ptr %8, align 8
  %14 = load i64, ptr %6, align 8
  %15 = icmp ult i64 %13, %14
  br i1 %15, label %16, label %61

16:                                               ; preds = %12
  %17 = load ptr, ptr %5, align 8
  %18 = load i64, ptr %8, align 8
  %19 = getelementptr inbounds i8, ptr %17, i64 %18
  %20 = load i8, ptr %19, align 1
  store i8 %20, ptr %9, align 1
  %21 = load i8, ptr %9, align 1
  %22 = sext i8 %21 to i32
  %23 = icmp eq i32 %22, 10
  br i1 %23, label %24, label %33

24:                                               ; preds = %16
  store i8 1, ptr %7, align 1
  %25 = getelementptr inbounds %class.outputStream, ptr %11, i32 0, i32 3
  %26 = load i32, ptr %25, align 8
  %27 = add nsw i32 %26, 1
  %28 = sext i32 %27 to i64
  %29 = getelementptr inbounds %class.outputStream, ptr %11, i32 0, i32 4
  %30 = load i64, ptr %29, align 8
  %31 = add i64 %30, %28
  store i64 %31, ptr %29, align 8
  %32 = getelementptr inbounds %class.outputStream, ptr %11, i32 0, i32 3
  store i32 0, ptr %32, align 8
  br label %57

33:                                               ; preds = %16
  %34 = load i8, ptr %9, align 1
  %35 = sext i8 %34 to i32
  %36 = icmp eq i32 %35, 9
  br i1 %36, label %37, label %52

37:                                               ; preds = %33
  %38 = getelementptr inbounds %class.outputStream, ptr %11, i32 0, i32 3
  %39 = load i32, ptr %38, align 8
  %40 = and i32 %39, 7
  %41 = sub nsw i32 8, %40
  store i32 %41, ptr %10, align 4
  %42 = load i32, ptr %10, align 4
  %43 = getelementptr inbounds %class.outputStream, ptr %11, i32 0, i32 3
  %44 = load i32, ptr %43, align 8
  %45 = add nsw i32 %44, %42
  store i32 %45, ptr %43, align 8
  %46 = load i32, ptr %10, align 4
  %47 = sub nsw i32 %46, 1
  %48 = sext i32 %47 to i64
  %49 = getelementptr inbounds %class.outputStream, ptr %11, i32 0, i32 4
  %50 = load i64, ptr %49, align 8
  %51 = sub i64 %50, %48
  store i64 %51, ptr %49, align 8
  br label %56

52:                                               ; preds = %33
  %53 = getelementptr inbounds %class.outputStream, ptr %11, i32 0, i32 3
  %54 = load i32, ptr %53, align 8
  %55 = add nsw i32 %54, 1
  store i32 %55, ptr %53, align 8
  br label %56

56:                                               ; preds = %52, %37
  br label %57

57:                                               ; preds = %56, %24
  br label %58

58:                                               ; preds = %57
  %59 = load i64, ptr %8, align 8
  %60 = add i64 %59, 1
  store i64 %60, ptr %8, align 8
  br label %12, !llvm.loop !6

61:                                               ; preds = %12
  %62 = load i8, ptr %7, align 1
  %63 = trunc i8 %62 to i1
  ret i1 %63
}

; Function Attrs: mustprogress nounwind uwtable
define hidden void @_ZN12stringStream14zero_terminateEv(ptr noundef nonnull align 8 dereferenceable(129) %0) #1 align 2 {
  %2 = alloca ptr, align 8
  store ptr %0, ptr %2, align 8
  %3 = load ptr, ptr %2, align 8
  %4 = getelementptr inbounds %class.stringStream, ptr %3, i32 0, i32 1
  %5 = load ptr, ptr %4, align 8
  %6 = getelementptr inbounds %class.stringStream, ptr %3, i32 0, i32 2
  %7 = load i64, ptr %6, align 8
  %8 = getelementptr inbounds i8, ptr %5, i64 %7
  store i8 0, ptr %8, align 1
  ret void
}

; Function Attrs: mustprogress nounwind uwtable
define hidden void @_ZN12stringStream4growEm(ptr noundef nonnull align 8 dereferenceable(129) %0, i64 noundef %1) #1 align 2 {
  %3 = alloca ptr, align 8
  %4 = alloca i64, align 8
  store ptr %0, ptr %3, align 8
  store i64 %1, ptr %4, align 8
  %5 = load ptr, ptr %3, align 8
  %6 = getelementptr inbounds %class.stringStream, ptr %5, i32 0, i32 1
  %7 = load ptr, ptr %6, align 8
  %8 = getelementptr inbounds %class.stringStream, ptr %5, i32 0, i32 5
  %9 = getelementptr inbounds [48 x i8], ptr %8, i64 0, i64 0
  %10 = icmp eq ptr %7, %9
  br i1 %10, label %11, label %29

11:                                               ; preds = %2
  %12 = load i64, ptr %4, align 8
  %13 = mul i64 %12, 1
  %14 = call noundef ptr @_Z12AllocateHeapm8MEMFLAGSN17AllocFailStrategy13AllocFailEnumE(i64 noundef %13, i8 noundef zeroext 9, i32 noundef 0)
  %15 = getelementptr inbounds %class.stringStream, ptr %5, i32 0, i32 1
  store ptr %14, ptr %15, align 8
  %16 = load i64, ptr %4, align 8
  %17 = getelementptr inbounds %class.stringStream, ptr %5, i32 0, i32 3
  store i64 %16, ptr %17, align 8
  %18 = getelementptr inbounds %class.stringStream, ptr %5, i32 0, i32 2
  %19 = load i64, ptr %18, align 8
  %20 = icmp ugt i64 %19, 0
  br i1 %20, label %21, label %28

21:                                               ; preds = %11
  %22 = getelementptr inbounds %class.stringStream, ptr %5, i32 0, i32 1
  %23 = load ptr, ptr %22, align 8
  %24 = getelementptr inbounds %class.stringStream, ptr %5, i32 0, i32 5
  %25 = getelementptr inbounds [48 x i8], ptr %24, i64 0, i64 0
  %26 = getelementptr inbounds %class.stringStream, ptr %5, i32 0, i32 2
  %27 = load i64, ptr %26, align 8
  call void @llvm.memcpy.p0.p0.i64(ptr align 1 %23, ptr align 1 %25, i64 %27, i1 false)
  br label %28

28:                                               ; preds = %21, %11
  call void @_ZN12stringStream14zero_terminateEv(ptr noundef nonnull align 8 dereferenceable(129) %5)
  br label %38

29:                                               ; preds = %2
  %30 = getelementptr inbounds %class.stringStream, ptr %5, i32 0, i32 1
  %31 = load ptr, ptr %30, align 8
  %32 = load i64, ptr %4, align 8
  %33 = mul i64 %32, 1
  %34 = call noundef ptr @_Z14ReallocateHeapPcm8MEMFLAGSN17AllocFailStrategy13AllocFailEnumE(ptr noundef %31, i64 noundef %33, i8 noundef zeroext 9, i32 noundef 0)
  %35 = getelementptr inbounds %class.stringStream, ptr %5, i32 0, i32 1
  store ptr %34, ptr %35, align 8
  %36 = load i64, ptr %4, align 8
  %37 = getelementptr inbounds %class.stringStream, ptr %5, i32 0, i32 3
  store i64 %36, ptr %37, align 8
  br label %38

38:                                               ; preds = %29, %28
  ret void
}

; Function Attrs: mustprogress nounwind uwtable
define linkonce_odr hidden noundef i64 @_Z4MAX2ImET_S0_S0_(i64 noundef %0, i64 noundef %1) #1 comdat {
  %3 = alloca i64, align 8
  %4 = alloca i64, align 8
  store i64 %0, ptr %3, align 8
  store i64 %1, ptr %4, align 8
  %5 = load i64, ptr %3, align 8
  %6 = load i64, ptr %4, align 8
  %7 = icmp ugt i64 %5, %6
  br i1 %7, label %8, label %10

8:                                                ; preds = %2
  %9 = load i64, ptr %3, align 8
  br label %12

10:                                               ; preds = %2
  %11 = load i64, ptr %4, align 8
  br label %12

12:                                               ; preds = %10, %8
  %13 = phi i64 [ %9, %8 ], [ %11, %10 ]
  ret i64 %13
}

; Function Attrs: mustprogress nounwind uwtable
define linkonce_odr hidden noundef i64 @_Z4MIN2ImET_S0_S0_(i64 noundef %0, i64 noundef %1) #1 comdat {
  %3 = alloca i64, align 8
  %4 = alloca i64, align 8
  store i64 %0, ptr %3, align 8
  store i64 %1, ptr %4, align 8
  %5 = load i64, ptr %3, align 8
  %6 = load i64, ptr %4, align 8
  %7 = icmp ult i64 %5, %6
  br i1 %7, label %8, label %10

8:                                                ; preds = %2
  %9 = load i64, ptr %3, align 8
  br label %12

10:                                               ; preds = %2
  %11 = load i64, ptr %4, align 8
  br label %12

12:                                               ; preds = %10, %8
  %13 = phi i64 [ %9, %8 ], [ %11, %10 ]
  ret i64 %13
}

; Function Attrs: mustprogress nounwind uwtable
define hidden void @_ZN12stringStream5writeEPKcm(ptr noundef nonnull align 8 dereferenceable(129) %0, ptr noundef %1, i64 noundef %2) unnamed_addr #1 align 2 {
  %4 = alloca ptr, align 8
  %5 = alloca ptr, align 8
  %6 = alloca i64, align 8
  %7 = alloca i64, align 8
  %8 = alloca i64, align 8
  %9 = alloca i64, align 8
  store ptr %0, ptr %4, align 8
  store ptr %1, ptr %5, align 8
  store i64 %2, ptr %6, align 8
  %10 = load ptr, ptr %4, align 8
  %11 = load i64, ptr %6, align 8
  %12 = icmp eq i64 %11, 0
  br i1 %12, label %13, label %14

13:                                               ; preds = %3
  br label %68

14:                                               ; preds = %3
  store i64 1073741824, ptr %7, align 8
  %15 = load i64, ptr %6, align 8
  %16 = icmp uge i64 %15, 1073741824
  br i1 %16, label %17, label %18

17:                                               ; preds = %14
  br label %68

18:                                               ; preds = %14
  store i64 0, ptr %8, align 8
  %19 = getelementptr inbounds %class.stringStream, ptr %10, i32 0, i32 4
  %20 = load i8, ptr %19, align 8
  %21 = trunc i8 %20 to i1
  br i1 %21, label %22, label %31

22:                                               ; preds = %18
  %23 = load i64, ptr %6, align 8
  %24 = getelementptr inbounds %class.stringStream, ptr %10, i32 0, i32 3
  %25 = load i64, ptr %24, align 8
  %26 = getelementptr inbounds %class.stringStream, ptr %10, i32 0, i32 2
  %27 = load i64, ptr %26, align 8
  %28 = sub i64 %25, %27
  %29 = sub i64 %28, 1
  %30 = call noundef i64 @_Z4MIN2ImET_S0_S0_(i64 noundef %23, i64 noundef %29)
  store i64 %30, ptr %8, align 8
  br label %49

31:                                               ; preds = %18
  %32 = load i64, ptr %6, align 8
  store i64 %32, ptr %8, align 8
  %33 = getelementptr inbounds %class.stringStream, ptr %10, i32 0, i32 2
  %34 = load i64, ptr %33, align 8
  %35 = load i64, ptr %6, align 8
  %36 = add i64 %34, %35
  %37 = add i64 %36, 1
  store i64 %37, ptr %9, align 8
  %38 = load i64, ptr %9, align 8
  %39 = getelementptr inbounds %class.stringStream, ptr %10, i32 0, i32 3
  %40 = load i64, ptr %39, align 8
  %41 = icmp ugt i64 %38, %40
  br i1 %41, label %42, label %48

42:                                               ; preds = %31
  %43 = load i64, ptr %9, align 8
  %44 = getelementptr inbounds %class.stringStream, ptr %10, i32 0, i32 3
  %45 = load i64, ptr %44, align 8
  %46 = mul i64 %45, 2
  %47 = call noundef i64 @_Z4MAX2ImET_S0_S0_(i64 noundef %43, i64 noundef %46)
  call void @_ZN12stringStream4growEm(ptr noundef nonnull align 8 dereferenceable(129) %10, i64 noundef %47)
  br label %48

48:                                               ; preds = %42, %31
  br label %49

49:                                               ; preds = %48, %22
  %50 = load i64, ptr %8, align 8
  %51 = icmp ugt i64 %50, 0
  br i1 %51, label %52, label %64

52:                                               ; preds = %49
  %53 = getelementptr inbounds %class.stringStream, ptr %10, i32 0, i32 1
  %54 = load ptr, ptr %53, align 8
  %55 = getelementptr inbounds %class.stringStream, ptr %10, i32 0, i32 2
  %56 = load i64, ptr %55, align 8
  %57 = getelementptr inbounds i8, ptr %54, i64 %56
  %58 = load ptr, ptr %5, align 8
  %59 = load i64, ptr %8, align 8
  call void @llvm.memcpy.p0.p0.i64(ptr align 1 %57, ptr align 1 %58, i64 %59, i1 false)
  %60 = load i64, ptr %8, align 8
  %61 = getelementptr inbounds %class.stringStream, ptr %10, i32 0, i32 2
  %62 = load i64, ptr %61, align 8
  %63 = add i64 %62, %60
  store i64 %63, ptr %61, align 8
  call void @_ZN12stringStream14zero_terminateEv(ptr noundef nonnull align 8 dereferenceable(129) %10)
  br label %64

64:                                               ; preds = %52, %49
  %65 = load ptr, ptr %5, align 8
  %66 = load i64, ptr %6, align 8
  %67 = call noundef zeroext i1 @_ZN12outputStream15update_positionEPKcm(ptr noundef nonnull align 8 dereferenceable(56) %10, ptr noundef %65, i64 noundef %66)
  br label %68

68:                                               ; preds = %64, %17, %13
  ret void
}