; Function Attrs: mustprogress nounwind uwtable
define hidden void @_ZN12stringStream5writeEPKcm(ptr noundef nonnull align 8 dereferenceable(129) %0, ptr nocapture noundef readonly %1, i64 noundef %2) unnamed_addr #0 align 2 {
  %4 = add i64 %2, -1073741824
  %or.cond = icmp ult i64 %4, -1073741823
  br i1 %or.cond, label %_ZN12outputStream15update_positionEPKcm.exit, label %5

5:                                                ; preds = %3
  %6 = getelementptr inbounds i8, ptr %0, i64 80
  %7 = load i8, ptr %6, align 8
  %8 = trunc i8 %7 to i1
  br i1 %8, label %_ZN12stringStream4growEm.exit, label %9

9:                                                ; preds = %5
  %10 = getelementptr inbounds i8, ptr %0, i64 64
  %11 = load i64, ptr %10, align 8
  %12 = add nuw nsw i64 %2, 1
  %13 = add i64 %12, %11
  %14 = getelementptr inbounds i8, ptr %0, i64 72
  %15 = load i64, ptr %14, align 8
  %16 = icmp ugt i64 %13, %15
  br i1 %16, label %17, label %_ZN12stringStream4growEm.exit.thread

17:                                               ; preds = %9
  %18 = shl i64 %15, 1
  %19 = tail call noundef i64 @llvm.umax.i64(i64 %13, i64 %18)
  %20 = getelementptr inbounds i8, ptr %0, i64 56
  %21 = load ptr, ptr %20, align 8
  %22 = getelementptr inbounds i8, ptr %0, i64 81
  %23 = icmp eq ptr %21, %22
  br i1 %23, label %24, label %32

24:                                               ; preds = %17
  %25 = tail call noundef ptr @_Z12AllocateHeapm8MEMFLAGSN17AllocFailStrategy13AllocFailEnumE(i64 noundef %19, i8 noundef zeroext 9, i32 noundef 0) #21
  store ptr %25, ptr %20, align 8
  store i64 %19, ptr %14, align 8
  %26 = load i64, ptr %10, align 8
  %.not.i = icmp eq i64 %26, 0
  br i1 %.not.i, label %28, label %27

27:                                               ; preds = %24
  tail call void @llvm.memcpy.p0.p0.i64(ptr align 1 %25, ptr nonnull align 1 %22, i64 %26, i1 false)
  %.pre.i = load ptr, ptr %20, align 8
  %.pre6.i = load i64, ptr %10, align 8
  br label %28

28:                                               ; preds = %27, %24
  %29 = phi i64 [ %.pre6.i, %27 ], [ 0, %24 ]
  %30 = phi ptr [ %.pre.i, %27 ], [ %25, %24 ]
  %31 = getelementptr inbounds i8, ptr %30, i64 %29
  store i8 0, ptr %31, align 1
  br label %_ZN12stringStream4growEm.exit.thread

32:                                               ; preds = %17
  %33 = tail call noundef ptr @_Z14ReallocateHeapPcm8MEMFLAGSN17AllocFailStrategy13AllocFailEnumE(ptr noundef %21, i64 noundef %19, i8 noundef zeroext 9, i32 noundef 0) #21
  store ptr %33, ptr %20, align 8
  store i64 %19, ptr %14, align 8
  br label %_ZN12stringStream4growEm.exit.thread

_ZN12stringStream4growEm.exit:                    ; preds = %5
  %34 = getelementptr inbounds i8, ptr %0, i64 72
  %35 = load i64, ptr %34, align 8
  %36 = getelementptr inbounds i8, ptr %0, i64 64
  %37 = load i64, ptr %36, align 8
  %38 = xor i64 %37, -1
  %39 = add i64 %35, %38
  %40 = tail call noundef i64 @llvm.umin.i64(i64 %2, i64 %39)
  %.not = icmp eq i64 %40, 0
  br i1 %.not, label %.lr.ph.i, label %_ZN12stringStream4growEm.exit.thread

_ZN12stringStream4growEm.exit.thread:             ; preds = %32, %28, %9, %_ZN12stringStream4growEm.exit
  %.019 = phi i64 [ %40, %_ZN12stringStream4growEm.exit ], [ %2, %9 ], [ %2, %28 ], [ %2, %32 ]
  %41 = getelementptr inbounds i8, ptr %0, i64 56
  %42 = load ptr, ptr %41, align 8
  %43 = getelementptr inbounds i8, ptr %0, i64 64
  %44 = load i64, ptr %43, align 8
  %45 = getelementptr inbounds i8, ptr %42, i64 %44
  tail call void @llvm.memcpy.p0.p0.i64(ptr align 1 %45, ptr align 1 %1, i64 %.019, i1 false)
  %46 = load i64, ptr %43, align 8
  %47 = add i64 %46, %.019
  store i64 %47, ptr %43, align 8
  %48 = load ptr, ptr %41, align 8
  %49 = getelementptr inbounds i8, ptr %48, i64 %47
  store i8 0, ptr %49, align 1
  br label %.lr.ph.i

.lr.ph.i:                                         ; preds = %_ZN12stringStream4growEm.exit, %_ZN12stringStream4growEm.exit.thread
  %50 = getelementptr inbounds i8, ptr %0, i64 16
  %51 = getelementptr inbounds i8, ptr %0, i64 24
  %.promoted.i = load i32, ptr %50, align 8
  %.promoted14.i = load i64, ptr %51, align 8
  br label %52

52:                                               ; preds = %69, %.lr.ph.i
  %53 = phi i64 [ %.promoted14.i, %.lr.ph.i ], [ %70, %69 ]
  %54 = phi i32 [ %.promoted.i, %.lr.ph.i ], [ %71, %69 ]
  %.01012.i = phi i64 [ 0, %.lr.ph.i ], [ %72, %69 ]
  %55 = getelementptr inbounds i8, ptr %1, i64 %.01012.i
  %56 = load i8, ptr %55, align 1
  switch i8 %56, label %67 [
    i8 10, label %57
    i8 9, label %61
  ]

57:                                               ; preds = %52
  %58 = add nsw i32 %54, 1
  %59 = sext i32 %58 to i64
  %60 = add i64 %53, %59
  store i64 %60, ptr %51, align 8
  store i32 0, ptr %50, align 8
  br label %69

61:                                               ; preds = %52
  %62 = and i32 %54, 7
  %reass.sub.i = and i32 %54, -8
  %63 = add i32 %reass.sub.i, 8
  store i32 %63, ptr %50, align 8
  %64 = xor i32 %62, 7
  %65 = zext nneg i32 %64 to i64
  %66 = sub i64 %53, %65
  store i64 %66, ptr %51, align 8
  br label %69

67:                                               ; preds = %52
  %68 = add nsw i32 %54, 1
  store i32 %68, ptr %50, align 8
  br label %69

69:                                               ; preds = %67, %61, %57
  %70 = phi i64 [ %60, %57 ], [ %66, %61 ], [ %53, %67 ]
  %71 = phi i32 [ 0, %57 ], [ %63, %61 ], [ %68, %67 ]
  %72 = add nuw i64 %.01012.i, 1
  %exitcond.not.i = icmp eq i64 %72, %2
  br i1 %exitcond.not.i, label %_ZN12outputStream15update_positionEPKcm.exit, label %52, !llvm.loop !6

_ZN12outputStream15update_positionEPKcm.exit:     ; preds = %69, %3
  ret void
}